(lp1
(S'after'
p2
I01
I01
I00
I00
I00
I00
I00
I00
I00
S'*a&b'
p3
I00
tp4
a(S'although'
I01
I00
I00
I00
I00
I00
I00
I00
I00
S'a&b'
p5
I00
tp6
a(S'and also'
I01
I01
I00
I01
I01
I00
I01
I01
I01
g5
I00
tp7
a(S'and'
p8
I01
I01
I01
I01
I01
I01
I01
I01
I01
g5
I01
tp9
a(S'as'
p10
I01
I00
I00
I00
I00
I00
I00
I00
I00
g5
I00
tp11
a(S'as if'
I01
I00
I00
I00
I00
I00
I00
I00
I00
S'a&-b'
p12
I00
tp13
a(S'as though'
I01
I00
I00
I00
I00
I00
I00
I00
I00
g12
I00
tp14
a(S'because'
I01
I00
I00
I00
I00
I00
I00
I00
I00
S'*cause'
p15
I00
tp16
a(S'before'
I01
I01
I00
I00
I00
I00
I00
I00
I00
g3
I00
tp17
a(S'both ... and'
I00
I01
I01
I01
I01
I01
I01
I01
I01
g5
I00
tp18
a(S'but'
I01
I00
I00
I01
I01
I00
I00
I00
I01
g5
I01
tp19
a(S'either ... or'
I01
I01
I01
I01
I01
I01
I01
I00
I00
S'a|b'
p20
I00
tp21
a(S'even if'
I01
I00
I00
I00
I00
I00
I00
I00
I01
S'a'
I00
tp22
a(S'for'
p23
I01
I00
I00
I00
I00
I00
I00
I00
I00
g15
I00
tp24
a(S'if'
p25
I00
I00
I00
I00
I01
I00
I00
I00
I00
g5
I00
tp26
a(S'in case'
I01
I00
I00
I00
I00
I00
I00
I00
I00
g15
I00
tp27
a(S'in case that'
I01
I00
I00
I00
I00
I00
I00
I00
I00
g15
I00
tp28
a(S'in order that'
I01
I00
I00
I00
I00
I00
I00
I00
I00
g15
I00
tp29
a(S'lest'
I00
I00
I00
I00
I00
I00
I00
I00
I00
g15
I00
tp30
a(S'neither ... nor'
I00
I01
I01
I01
I01
I01
I01
I01
I01
S'!(a|b)'
I00
tp31
a(S'not only ... but also'
I00
I01
I01
I01
I01
I01
I01
I01
I01
g5
I00
tp32
a(S'only'
I01
I00
I00
I00
I00
I00
I00
I00
I00
g5
I00
tp33
a(S'or'
p34
I01
I01
I01
I01
I01
I01
I01
I01
I01
g20
I01
tp35
a(S'or else'
I01
I00
I00
I00
I00
I00
I01
I00
I00
S'(-a)->b'
I00
tp36
a(S'scarcely ... when'
I00
I00
I00
I00
I00
I00
I00
I00
I00
g3
I00
tp37
a(S'so'
I01
I00
I00
I00
I00
I00
I00
I00
I00
g5
I00
tp38
a(S'so as to'
I00
I00
I00
I00
I00
I00
I00
I00
I00
g15
I00
tp39
a(S'so that'
I00
I00
I00
I00
I00
I00
I00
I00
I00
g15
I00
tp40
a(S'though'
I01
I00
I00
I00
I00
I00
I00
I00
I00
g5
I00
tp41
a(S'till'
I01
I00
I00
I00
I00
I00
I00
I00
I00
g3
I00
tp42
a(S'unless'
I01
I00
I00
I00
I00
I00
I00
I00
I00
S'(-b)->a'
I00
tp43
a(S'until'
I01
I00
I00
I00
I00
I00
I00
I00
I00
g3
I00
tp44
a(S'whereas'
I01
I00
I00
I00
I00
I00
I00
I00
I00
g5
I00
tp45
a(S'whether or not'
I01
I00
I00
I00
I00
I00
I00
I00
I00
S'a'
I00
tp46
a(S'while'
p47
I01
I00
I00
I00
I00
I00
I00
I00
I00
g3
I00
tp48
a(S'yet'
I01
I00
I00
I01
I01
I00
I00
I00
I01
g5
I00
tp49
a.