(lp1
(I0
(S'NP'
p2
S'CV'
p3
S'"of"'
p4
g2
S'"about"'
p5
g2
t(dp6
S'inquire-37.1.2'
p7
c__builtin__
set
p8
((lp9
I17
aI18
aI19
aI20
atRp10
stp11
a(I1
(g2
g3
g2
S'Prep[TYP=spatial,+dir]'
p12
g2
t(dp13
S'ferret-35.6'
p14
g8
((lp15
I0
atRp16
stp17
a(I2
(g2
g3
g2
S'"from"'
p18
g2
S'"at"'
p19
g2
t(dp20
S'get-13.5.1'
p21
g8
((lp22
I6
atRp23
stp24
a(I3
(g2
g3
g2
g18
g2
t(dp25
S'disassemble-23.3'
p26
g8
((lp27
I1
atRp28
sS'concealment-16'
p29
g8
((lp30
I0
atRp31
sS'create-26.4'
p32
g8
((lp33
I1
atRp34
sS'deduce-97.2'
p35
g8
((lp36
I1
atRp37
sS'get-13.5.1-1'
p38
g8
((lp39
I0
atRp40
sS'fire-10.10'
p41
g8
((lp42
I1
atRp43
sS'require-103'
p44
g8
((lp45
I1
atRp46
sS'obtain-13.5.2'
p47
g8
((lp48
I1
atRp49
sS'cheat-10.6-1'
p50
g8
((lp51
I0
atRp52
sS'build-26.1'
p53
g8
((lp54
I2
atRp55
sS'cut-21.1'
p56
g8
((lp57
I13
atRp58
sS'split-23.2'
p59
g8
((lp60
I0
atRp61
sS'build-26.1-1'
p62
g8
((lp63
I3
atRp64
sS'multiply-108-2'
p65
g8
((lp66
I0
atRp67
sg21
g8
((lp68
I1
atRp69
sS'learn-14'
p70
g8
((lp71
I0
atRp72
sS'grow-26.2'
p73
g8
((lp74
I2
atRp75
sS'separate-23.1'
p76
g8
((lp77
I0
atRp78
stp79
a(I4
(g2
g3
S'Prep[TYP=spatial,+dest_conf]'
p80
g2
t(dp81
S'spray-9.7-1'
p82
g8
((lp83
I0
atRp84
stp85
a(I5
(g2
g3
g2
S'"up"'
p86
t(dp87
S'dressing_well-41.3.2'
p88
g8
((lp89
I0
atRp90
sS'gobble-39.3-1'
p91
g8
((lp92
I1
atRp93
stp94
a(I6
(g2
g3
S'"to"'
p95
g2
t(dp96
S'suffocate-40.7'
p97
g8
((lp98
I2
atRp99
sS'roll-51.3.1'
p100
g8
((lp101
I5
atRp102
sS'relate-86.2-2'
p103
g8
((lp104
I0
atRp105
sS'other_cos-45.4'
p106
g8
((lp107
I10
atRp108
sS'talk-37.5'
p109
g8
((lp110
I1
atRp111
sS'matter-91'
p112
g8
((lp113
I1
atRp114
sS'break-45.1'
p115
g8
((lp116
I9
atRp117
sS'mix-22.1-2-1'
p118
g8
((lp119
I0
atRp120
sS'slide-11.2'
p121
g8
((lp122
I2
atRp123
sS'convert-26.6.2'
p124
g8
((lp125
I0
aI1
atRp126
sS'acquiesce-95'
p127
g8
((lp128
I0
atRp129
sS'contribute-13.2-1'
p130
g8
((lp131
I0
atRp132
sS'tape-22.4-1'
p133
g8
((lp134
I0
atRp135
sS'mix-22.1-1'
p136
g8
((lp137
I3
atRp138
sS'appeal-31.4'
p139
g8
((lp140
I0
atRp141
sS'cooking-45.3'
p142
g8
((lp143
I10
atRp144
sS'adjust-26.9'
p145
g8
((lp146
I3
aI4
atRp147
sS'marvel-31.3-9'
p148
g8
((lp149
I0
atRp150
sS'complain-37.8'
p151
g8
((lp152
I1
atRp153
sS'turn-26.6.1-1'
p154
g8
((lp155
I0
atRp156
sS'cling-22.5'
p157
g8
((lp158
I0
atRp159
sS'contribute-13.2-1-1-1'
p160
g8
((lp161
I0
atRp162
sS'confess-37.10'
p163
g8
((lp164
I7
atRp165
sS'give-13.1'
p166
g8
((lp167
I3
atRp168
stp169
a(I7
(g2
g3
S'"regarding"'
p170
g2
t(dp171
S'advise-37.9-1'
p172
g8
((lp173
I0
atRp174
stp175
a(I8
(g2
g3
g2
S'"for"'
p176
g2
t(dp177
S'funnel-9.3-1'
p178
g8
((lp179
I1
atRp180
sg38
g8
((lp181
I0
atRp182
sg32
g8
((lp183
I2
atRp184
sS'rummage-35.5'
p185
g8
((lp186
I0
atRp187
sS'steal-10.5'
p188
g8
((lp189
I2
atRp190
sS'use-105'
p191
g8
((lp192
I1
atRp193
sS'stalk-35.3'
p194
g8
((lp195
I0
atRp196
sS'give-13.1-1'
p197
g8
((lp198
I0
atRp199
sS'hunt-35.1'
p200
g8
((lp201
I0
atRp202
sS'ensure-99'
p203
g8
((lp204
I2
atRp205
sS'rehearse-26.8'
p206
g8
((lp207
I2
atRp208
sg53
g8
((lp209
I4
aI7
atRp210
sg62
g8
((lp211
I0
atRp212
sS'search-35.2'
p213
g8
((lp214
I0
atRp215
sS'investigate-35.4'
p216
g8
((lp217
I0
atRp218
sS'obtain-13.5.2-1'
p219
g8
((lp220
I0
atRp221
sS'consider-29.9-1-1-1'
p222
g8
((lp223
I3
atRp224
sS'assessment-34.1'
p225
g8
((lp226
I1
atRp227
sS'pay-68'
p228
g8
((lp229
I0
atRp230
sS'want-32.1'
p231
g8
((lp232
I1
atRp233
sS'future_having-13.3'
p234
g8
((lp235
I3
atRp236
sS'dub-29.3-1'
p237
g8
((lp238
I1
atRp239
sS'exchange-13.6'
p240
g8
((lp241
I0
atRp242
sS'beg-58.2'
p243
g8
((lp244
I1
atRp245
sS'preparing-26.3-2'
p246
g8
((lp247
I2
atRp248
sS'preparing-26.3-1'
p249
g8
((lp250
I2
atRp251
sS'admire-31.2'
p252
g8
((lp253
I1
atRp254
sS'performance-26.7-2'
p255
g8
((lp256
I2
atRp257
sS'performance-26.7-1'
p258
g8
((lp259
I3
atRp260
sS'judgement-33'
p261
g8
((lp262
I1
atRp263
sg21
g8
((lp264
I2
aI4
atRp265
stp266
a(I9
(g2
g3
g18
g2
S'"into"'
p267
g2
t(dp268
S'turn-26.6.1'
p269
g8
((lp270
I1
atRp271
stp272
a(I10
(g2
g3
S'"on"'
p273
g2
g2
t(dp274
S'bring-11.3'
p275
g8
((lp276
I2
atRp277
sS'put-9.1-2'
p278
g8
((lp279
I0
atRp280
stp281
a(I11
(g2
g3
g2
g95
g2
S'Prep[TYP=spatial,+src]'
p282
g2
t(dp283
S'carry-11.4'
p284
g8
((lp285
I4
atRp286
sS'drive-11.5'
p287
g8
((lp288
I4
atRp289
sS'carry-11.4-1'
p290
g8
((lp291
I4
atRp292
sS'drive-11.5-1'
p293
g8
((lp294
I5
atRp295
sS'send-11.1'
p296
g8
((lp297
I4
atRp298
stp299
a(I12
(g2
g3
g2
g4
g2
t(dp300
S'clear-10.3-1'
p301
g8
((lp302
I0
atRp303
sS'free-80-1'
p304
g8
((lp305
I0
atRp306
sg59
g8
((lp307
I0
atRp308
sS'cheat-10.6'
p309
g8
((lp310
I0
atRp311
sS'free-80'
p312
g8
((lp313
I0
atRp314
sS'advise-37.9'
p315
g8
((lp316
I5
atRp317
sS'suspect-81'
p318
g8
((lp319
I0
aI1
atRp320
sS'tell-37.2'
p321
g8
((lp322
I1
atRp323
stp324
a(I13
(g2
g3
g2
g95
g2
S'"with"'
p325
g2
t(dp326
S'swat-18.2'
p327
g8
((lp328
I7
atRp329
sS'bend-45.2'
p330
g8
((lp331
I7
atRp332
sg56
g8
((lp333
I10
atRp334
sg106
g8
((lp335
I8
atRp336
sS'spank-18.3'
p337
g8
((lp338
I4
atRp339
sS'hit-18.1'
p340
g8
((lp341
I6
atRp342
sg142
g8
((lp343
I8
atRp344
sg115
g8
((lp345
I8
atRp346
stp347
a(I14
(g2
g3
g5
g2
g18
g2
t(dp348
S'discover-84-1-1'
p349
g8
((lp350
I4
atRp351
stp352
a(I15
(g2
g3
g2
g2
g273
g2
t(dp353
g197
g8
((lp354
I2
atRp355
stp356
a(I16
(g2
g3
g267
g2
g2
t(dp357
g275
g8
((lp358
I2
atRp359
sS'throw-17.1-1-1'
p360
g8
((lp361
I1
atRp362
stp363
a(I17
(g2
g3
g325
g2
g5
g2
t(dp364
S'battle-36.4'
p365
g8
((lp366
I0
aI1
aI2
aI3
aI4
atRp367
sg109
g8
((lp368
I4
atRp369
sS'chit_chat-37.6'
p370
g8
((lp371
I2
atRp372
sS'correspond-36.1'
p373
g8
((lp374
I8
aI9
aI10
aI11
aI7
atRp375
stp376
a(I18
(g2
g3
g86
g2
t(dp377
g88
g8
((lp378
I1
atRp379
stp380
a(I19
(g2
g3
g2
g325
g2
t(dp381
g136
g8
((lp382
I0
atRp383
sS'shake-22.3-2'
p384
g8
((lp385
I0
atRp386
sS'help-72'
p387
g8
((lp388
I1
aI2
atRp389
sS'correlate-86.1'
p390
g8
((lp391
I1
atRp392
sS'poke-19'
p393
g8
((lp394
I2
atRp395
sS'equip-13.4.2'
p396
g8
((lp397
I0
atRp398
sg337
g8
((lp399
I1
atRp400
sS'confront-98'
p401
g8
((lp402
I1
atRp403
sS'carve-21.2-1'
p404
g8
((lp405
I1
atRp406
sg330
g8
((lp407
I1
atRp408
sg142
g8
((lp409
I1
atRp410
sS'stop-55.4'
p411
g8
((lp412
I4
atRp413
sg240
g8
((lp414
I3
atRp415
sg106
g8
((lp416
I1
atRp417
sS'mix-22.1-2'
p418
g8
((lp419
I0
atRp420
sS'exchange-13.6-1'
p421
g8
((lp422
I0
atRp423
sS'amuse-31.1'
p424
g8
((lp425
I3
atRp426
sS'floss-41.2.1'
p427
g8
((lp428
I2
atRp429
sS'pelt-17.2'
p430
g8
((lp431
I0
atRp432
sS'murder-42.1'
p433
g8
((lp434
I1
atRp435
sg327
g8
((lp436
I1
atRp437
sg115
g8
((lp438
I1
atRp439
sS'amalgamate-22.2-2'
p440
g8
((lp441
I0
atRp442
sS'subjugate-42.3'
p443
g8
((lp444
I1
atRp445
sS'establish-55.5-1'
p446
g8
((lp447
I0
atRp448
sS'carve-21.2-2'
p449
g8
((lp450
I1
atRp451
sS'fulfilling-13.4.1'
p452
g8
((lp453
I1
atRp454
sS'shake-22.3-1'
p455
g8
((lp456
I0
atRp457
sg340
g8
((lp458
I1
atRp459
sS'fill-9.8'
p460
g8
((lp461
I0
atRp462
sS'touch-20'
p463
g8
((lp464
I1
atRp465
sS'destroy-44'
p466
g8
((lp467
I1
atRp468
sS'image_impression-25.1'
p469
g8
((lp470
I1
atRp471
sS'amalgamate-22.2-1'
p472
g8
((lp473
I0
atRp474
sS'illustrate-25.3'
p475
g8
((lp476
I1
atRp477
sS'butter-9.9'
p478
g8
((lp479
I1
atRp480
sS'touch-20-1'
p481
g8
((lp482
I1
atRp483
sS'spray-9.7'
p484
g8
((lp485
I1
atRp486
sS'begin-55.1-1'
p487
g8
((lp488
I4
atRp489
sS'poison-42.2'
p490
g8
((lp491
I3
atRp492
sg56
g8
((lp493
I1
atRp494
stp495
a(I20
(g2
g3
g2
S'"concerning"'
p496
g2
t(dp497
g315
g8
((lp498
I1
atRp499
stp500
a(I21
(g2
g3
g325
g2
g19
g2
t(dp501
S'cooperate-73-3'
p502
g8
((lp503
I3
atRp504
stp505
a(I22
(g2
g3
g2
S'"through"'
p506
g2
t(dp507
g393
g8
((lp508
I1
atRp509
sS'sustain-55.6'
p510
g8
((lp511
I1
aI2
atRp512
stp513
a(I23
(g2
g3
g2
S'"onto"'
p514
g2
t(dp515
g275
g8
((lp516
I1
atRp517
sS'breathe-40.1.2'
p518
g8
((lp519
I3
atRp520
sS'tape-22.4'
p521
g8
((lp522
I1
atRp523
stp524
a(I24
(g2
g3
g2
S'AJP'
p525
g273
g2
t(dp526
g142
g8
((lp527
I6
atRp528
stp529
a(I25
(g2
g3
g19
g2
g325
g2
t(dp530
S'hit-18.1-1'
p531
g8
((lp532
I1
atRp533
sg327
g8
((lp534
I3
atRp535
sg56
g8
((lp536
I3
atRp537
sg393
g8
((lp538
I4
atRp539
stp540
a(I26
(g2
g3
g2
S'"in" "between"'
g2
t(dp541
S'funnel-9.3-2'
p542
g8
((lp543
I0
atRp544
stp545
a(I27
(g2
g3
g2
S'"before"'
p546
g2
t(dp547
g275
g8
((lp548
I1
atRp549
stp550
a(I28
(g2
g3
g525
S'"in"'
p551
g2
t(dp552
g142
g8
((lp553
I11
atRp554
stp555
a(I29
(g2
g3
S'Prep[TYP=spatial,+loc]'
p556
g2
t(dp557
S'exist-47.1'
p558
g8
((lp559
I0
atRp560
sS'wipe_instr-10.4.2'
p561
g8
((lp562
I3
atRp563
sS'swarm-47.5.1-2'
p564
g8
((lp565
I0
atRp566
sS'swarm-47.5.1-1'
p567
g8
((lp568
I0
atRp569
sg240
g8
((lp570
I2
atRp571
sS'entity_specific_modes_being-47.2'
p572
g8
((lp573
I1
atRp574
sS'sound_existence-47.4'
p575
g8
((lp576
I1
atRp577
sg82
g8
((lp578
I0
atRp579
sS'spatial_configuration-47.6'
p580
g8
((lp581
I1
atRp582
sS'modes_of_being_with_motion-47.3'
p583
g8
((lp584
I1
atRp585
sS'appear-48.1.1'
p586
g8
((lp587
I1
atRp588
sS'sound_emission-43.2'
p589
g8
((lp590
I1
atRp591
sS'put_spatial-9.2-1'
p592
g8
((lp593
I0
atRp594
sS'linger-53.1'
p595
g8
((lp596
I0
atRp597
sS'assuming_position-50'
p598
g8
((lp599
I1
atRp600
sS'light_emission-43.1'
p601
g8
((lp602
I1
atRp603
sg213
g8
((lp604
I3
atRp605
sS'concealment-16-1'
p606
g8
((lp607
I2
atRp608
sS'occurrence-48.3'
p609
g8
((lp610
I2
atRp611
sS'weekend-56'
p612
g8
((lp613
I0
atRp614
stp615
a(I30
(g2
g3
g2
g267
g2
g551
g2
t(dp616
g142
g8
((lp617
I8
atRp618
stp619
a(I31
(g2
g3
S'"off"'
p620
g2
t(dp621
g59
g8
((lp622
I2
atRp623
stp624
a(I32
(g2
g3
g95
g2
g18
g2
t(dp625
g154
g8
((lp626
I2
atRp627
stp628
a(I33
(g2
g3
g18
g2
g2
t(dp629
S'discover-84-1'
p630
g8
((lp631
I1
aI2
atRp632
sg35
g8
((lp633
I2
atRp634
stp635
a(I34
(g2
g3
g2
g282
g2
S'"towards"'
p636
g2
t(dp637
g284
g8
((lp638
I3
atRp639
sg287
g8
((lp640
I3
atRp641
sg290
g8
((lp642
I3
atRp643
stp644
a(I35
(g2
g3
S'Prep[TYP=spatial,+dest_dir]'
p645
g2
t(dp646
S'animal_sounds-38'
p647
g8
((lp648
I1
atRp649
sS'curtsey-40.3.3'
p650
g8
((lp651
I1
atRp652
sS'wink-40.3.1-1'
p653
g8
((lp654
I1
atRp655
sS'manner_speaking-37.3'
p656
g8
((lp657
I1
atRp658
sS'nonverbal_expression-40.2'
p659
g8
((lp660
I3
atRp661
stp662
a(I36
(g2
g3
g2
g556
g2
g325
g2
t(dp663
g337
g8
((lp664
I6
atRp665
stp666
a(I37
(g2
g3
g2
g95
g2
t(dp667
g287
g8
((lp668
I1
atRp669
sS'instr_communication-37.4'
p670
g8
((lp671
I2
atRp672
sS'reflexive_appearance-48.1.2'
p673
g8
((lp674
I1
atRp675
sS'tell-37.2-1'
p676
g8
((lp677
I1
atRp678
sS'nonvehicle-51.4.2'
p679
g8
((lp680
I5
aI7
atRp681
sg115
g8
((lp682
I7
atRp683
sS'dedicate-79'
p684
g8
((lp685
I0
aI1
atRp686
sg455
g8
((lp687
I0
atRp688
sS'banish-10.2'
p689
g8
((lp690
I2
atRp691
sg384
g8
((lp692
I0
atRp693
sg521
g8
((lp694
I1
atRp695
sS'transfer_mesg-37.1.1'
p696
g8
((lp697
I7
atRp698
sS'feeding-39.7'
p699
g8
((lp700
I1
atRp701
sg97
g8
((lp702
I3
atRp703
sg145
g8
((lp704
I1
aI2
atRp705
sg284
g8
((lp706
I1
atRp707
sS'addict-96'
p708
g8
((lp709
I1
aI2
atRp710
sS'say-37.7-2'
p711
g8
((lp712
I0
atRp713
sS'waltz-51.5'
p714
g8
((lp715
I4
aI6
atRp716
sg330
g8
((lp717
I6
atRp718
sg337
g8
((lp719
I3
atRp720
sg100
g8
((lp721
I7
atRp722
sg106
g8
((lp723
I7
atRp724
sg258
g8
((lp725
I2
atRp726
sg340
g8
((lp727
I10
aI5
atRp728
sS'say-37.7-1-1'
p729
g8
((lp730
I0
atRp731
sg290
g8
((lp732
I2
atRp733
sg452
g8
((lp734
I0
atRp735
sg121
g8
((lp736
I6
atRp737
sS'run-51.3.2'
p738
g8
((lp739
I8
aI10
atRp740
sg490
g8
((lp741
I2
atRp742
sS'confine-92-1'
p743
g8
((lp744
I0
atRp745
sg56
g8
((lp746
I9
aI12
atRp747
sg136
g8
((lp748
I0
atRp749
sg418
g8
((lp750
I0
atRp751
sS'contribute-13.2'
p752
g8
((lp753
I0
atRp754
sg296
g8
((lp755
I2
atRp756
sS'vehicle-51.4.1'
p757
g8
((lp758
I5
aI7
atRp759
sg142
g8
((lp760
I7
atRp761
sg234
g8
((lp762
I0
atRp763
sg650
g8
((lp764
I3
atRp765
sg275
g8
((lp766
I1
atRp767
sS'limit-76'
p768
g8
((lp769
I1
aI2
atRp770
sS'convert-26.6.2-1'
p771
g8
((lp772
I2
aI3
atRp773
sS'coloring-24'
p774
g8
((lp775
I2
atRp776
sg327
g8
((lp777
I6
atRp778
sg293
g8
((lp779
I3
atRp780
sg472
g8
((lp781
I0
atRp782
sS'say-37.7'
p783
g8
((lp784
I1
atRp785
sS'amalgamate-22.2-3-1'
p786
g8
((lp787
I0
atRp788
sg163
g8
((lp789
I5
atRp790
sg166
g8
((lp791
I0
atRp792
stp793
a(I38
(g2
g3
S'Prep[TYP=spatial,+path,-dest_dir]'
p794
g2
t(dp795
g121
g8
((lp796
I1
atRp797
sS'pour-9.5'
p798
g8
((lp799
I2
atRp800
stp801
a(I39
(g2
g3
g2
S'"together"'
p802
t(dp803
g136
g8
((lp804
I2
atRp805
sg418
g8
((lp806
I2
atRp807
sg521
g8
((lp808
I2
atRp809
sg455
g8
((lp810
I1
atRp811
sg340
g8
((lp812
I2
atRp813
sg384
g8
((lp814
I1
atRp815
sS'bring-11.3-1'
p816
g8
((lp817
I1
atRp818
sS'herd-47.5.2'
p819
g8
((lp820
I2
atRp821
stp822
a(I40
(g2
g3
g2
g282
g2
g80
g2
t(dp823
g798
g8
((lp824
I3
atRp825
stp826
a(I41
(g2
g3
S'"under"'
p827
g2
t(dp828
S'pocket-9.10-1'
p829
g8
((lp830
I0
atRp831
stp832
a(I42
(g2
g3
g176
g2
g2
t(dp833
g670
g8
((lp834
I16
atRp835
sg656
g8
((lp836
I12
atRp837
stp838
a(I43
(g2
g3
g2
g551
g2
t(dp839
S'fit-54.3'
p840
g8
((lp841
I1
atRp842
sg178
g8
((lp843
I0
atRp844
sg142
g8
((lp845
I1
atRp846
sS'pocket-9.10'
p847
g8
((lp848
I1
atRp849
sS'see-30.1'
p850
g8
((lp851
I2
atRp852
sS'classify-29.10'
p853
g8
((lp854
I2
atRp855
sS'wink-40.3.1'
p856
g8
((lp857
I1
atRp858
sg460
g8
((lp859
I1
atRp860
sg252
g8
((lp861
I2
atRp862
sS'exceed-90'
p863
g8
((lp864
I1
atRp865
sS'involve-107'
p866
g8
((lp867
I1
atRp868
stp869
a(I44
(g2
g3
g95
g2
g551
g2
t(dp870
g142
g8
((lp871
I12
atRp872
stp873
a(I45
(g2
g3
g2
g2
g19
g2
t(dp874
g197
g8
((lp875
I2
atRp876
stp877
a(I46
(g2
g3
S'"away"'
t(dp878
S'withdraw-82-2'
p879
g8
((lp880
I0
atRp881
stp882
a(I47
(g2
g3
g282
g2
t(dp883
S'eat-39.1-1'
p884
g8
((lp885
I4
atRp886
sS'eat-39.1-2'
p887
g8
((lp888
I3
atRp889
sS'clear-10.3'
p890
g8
((lp891
I3
atRp892
stp893
a(I48
(g2
g3
g2
g95
g2
g19
g2
t(dp894
g197
g8
((lp895
I1
atRp896
stp897
a(I49
(g2
g3
g2
g95
S'"be"'
g2
t(dp898
S'conjecture-29.5-2'
p899
g8
((lp900
I0
atRp901
sS'conjecture-29.5-1'
p902
g8
((lp903
I0
atRp904
sS'appoint-29.1'
p905
g8
((lp906
I2
atRp907
stp908
a(I50
(g2
g3
g2
g18
g2
g176
g2
t(dp909
g53
g8
((lp910
I11
aI6
atRp911
sg21
g8
((lp912
I6
atRp913
stp914
a(I51
(g2
g3
g325
g2
t(dp915
g387
g8
((lp916
I4
atRp917
sg390
g8
((lp918
I0
atRp919
sg567
g8
((lp920
I3
atRp921
sS'separate-23.1-2'
p922
g8
((lp923
I0
atRp924
sS'lodge-46'
p925
g8
((lp926
I0
atRp927
sg589
g8
((lp928
I2
atRp929
sg109
g8
((lp930
I2
atRp931
sS'differ-23.4'
p932
g8
((lp933
I0
atRp934
sg427
g8
((lp935
I3
atRp936
sS'help-72-1'
p937
g8
((lp938
I0
atRp939
sS'swarm-47.5.1-2-1'
p940
g8
((lp941
I0
atRp942
sS'bulge-47.5.3'
p943
g8
((lp944
I0
atRp945
sg601
g8
((lp946
I2
atRp947
sg118
g8
((lp948
I0
atRp949
sg487
g8
((lp950
I3
atRp951
sg136
g8
((lp952
I3
atRp953
sg572
g8
((lp954
I4
atRp955
sS'cope-83'
p956
g8
((lp957
I0
atRp958
sS'conspire-71'
p959
g8
((lp960
I1
atRp961
sg411
g8
((lp962
I3
atRp963
sS'rush-53.2'
p964
g8
((lp965
I0
atRp966
sS'substance_emission-43.4'
p967
g8
((lp968
I5
atRp969
sg370
g8
((lp970
I1
atRp971
sg472
g8
((lp972
I2
atRp973
sS'meet-36.3-1'
p974
g8
((lp975
I0
atRp976
sS'meet-36.3-2'
p977
g8
((lp978
I0
atRp979
sg440
g8
((lp980
I2
atRp981
sg575
g8
((lp982
I4
atRp983
sg157
g8
((lp984
I0
atRp985
sS'empathize-88.2'
p986
g8
((lp987
I1
aI2
aI3
atRp988
sg647
g8
((lp989
I6
atRp990
stp991
a(I52
(g2
g3
g2
g556
g2
t(dp992
S'throw-17.1'
p993
g8
((lp994
I1
atRp995
sg337
g8
((lp996
I5
atRp997
sS'keep-15.2'
p998
g8
((lp999
I0
atRp1000
sS'put-9.1'
p1001
g8
((lp1002
I0
atRp1003
sg194
g8
((lp1004
I1
atRp1005
sS'transcribe-25.4'
p1006
g8
((lp1007
I1
atRp1008
sS'scribble-25.2'
p1009
g8
((lp1010
I1
atRp1011
sg327
g8
((lp1012
I8
atRp1013
sS'put_spatial-9.2'
p1014
g8
((lp1015
I0
atRp1016
sg29
g8
((lp1017
I1
atRp1018
sg200
g8
((lp1019
I3
atRp1020
sg580
g8
((lp1021
I4
atRp1022
sg469
g8
((lp1023
I0
atRp1024
sS'admit-65'
p1025
g8
((lp1026
I2
atRp1027
sg484
g8
((lp1028
I0
atRp1029
stp1030
a(I53
(g2
g3
g525
g273
g2
t(dp1031
g142
g8
((lp1032
I11
atRp1033
stp1034
a(I54
(g2
g3
g2
g95
g2
g176
g2
t(dp1035
g197
g8
((lp1036
I1
atRp1037
stp1038
a(I55
(g2
g3
g2
S'"after"'
p1039
g2
t(dp1040
g237
g8
((lp1041
I0
atRp1042
stp1043
a(I56
(g2
g3
g2
S'"\'s"'
g2
t(dp1044
g225
g8
((lp1045
I2
atRp1046
stp1047
a(I57
(g2
g3
S'"by"'
p1048
g2
t(dp1049
S'marvel-31.3'
p1050
g8
((lp1051
I0
atRp1052
sS'calibratable_cos-45.6'
p1053
g8
((lp1054
I7
atRp1055
stp1056
a(I58
(g2
g3
g2
g19
g2
t(dp1057
g197
g8
((lp1058
I0
atRp1059
sS'register-54.1'
p1060
g8
((lp1061
I1
atRp1062
sg82
g8
((lp1063
I1
atRp1064
sS'price-54.4'
p1065
g8
((lp1066
I1
atRp1067
sS'crane-40.3.2'
p1068
g8
((lp1069
I2
atRp1070
sS'estimate-34.2'
p1071
g8
((lp1072
I1
atRp1073
sg856
g8
((lp1074
I2
atRp1075
stp1076
a(I59
(g2
g3
g2
g525
g551
g2
t(dp1077
g142
g8
((lp1078
I6
atRp1079
stp1080
a(I60
(g2
g3
S'"against"'
p1081
g2
t(dp1082
S'bump-18.4'
p1083
g8
((lp1084
I0
atRp1085
sg172
g8
((lp1086
I0
atRp1087
sS'push-12-1'
p1088
g8
((lp1089
I1
atRp1090
sg959
g8
((lp1091
I2
atRp1092
stp1093
a(I61
(g2
g3
g2
g18
g2
g267
g2
t(dp1094
g269
g8
((lp1095
I0
atRp1096
stp1097
a(I62
(g2
g3
g2
t(dp1098
g840
g8
((lp1099
I0
atRp1100
sg387
g8
((lp1101
I0
atRp1102
sS'promote-102'
p1103
g8
((lp1104
I0
aI1
aI2
atRp1105
sg32
g8
((lp1106
I0
atRp1107
sS'relate-86.2-1'
p1108
g8
((lp1109
I0
atRp1110
sg998
g8
((lp1111
I1
atRp1112
sS'force-59'
p1113
g8
((lp1114
I0
atRp1115
sg287
g8
((lp1116
I0
atRp1117
sS'hire-13.5.3'
p1118
g8
((lp1119
I0
atRp1120
sS'patent-101'
p1121
g8
((lp1122
I0
atRp1123
sS'see-30.1-1'
p1124
g8
((lp1125
I2
atRp1126
sS'groom-41.1.2'
p1127
g8
((lp1128
I0
atRp1129
sS'linger-53.1-1'
p1130
g8
((lp1131
I0
atRp1132
sg194
g8
((lp1133
I2
atRp1134
sg673
g8
((lp1135
I0
aI2
atRp1136
sS'characterize-29.2-1-1'
p1137
g8
((lp1138
I0
aI1
aI2
atRp1139
sS'dub-29.3'
p1140
g8
((lp1141
I1
atRp1142
sg427
g8
((lp1143
I0
atRp1144
sS'characterize-29.2-1-2'
p1145
g8
((lp1146
I0
aI1
aI2
aI3
atRp1147
sg679
g8
((lp1148
I8
aI3
atRp1149
sg115
g8
((lp1150
I0
aI4
atRp1151
sg443
g8
((lp1152
I0
atRp1153
sg783
g8
((lp1154
I0
aI3
aI4
aI5
aI6
aI7
atRp1155
sg561
g8
((lp1156
I1
atRp1157
sg200
g8
((lp1158
I4
atRp1159
sS'consider-29.9-1-1'
p1160
g8
((lp1161
I0
aI1
aI2
aI3
atRp1162
sS'put_direction-9.4'
p1163
g8
((lp1164
I0
atRp1165
sS'care-88.1-1'
p1166
g8
((lp1167
I1
atRp1168
sg460
g8
((lp1169
I2
aI3
atRp1170
sS'orphan-29.7'
p1171
g8
((lp1172
I0
atRp1173
sg44
g8
((lp1174
I0
aI2
aI3
aI4
atRp1175
sS'masquerade-29.6-2'
p1176
g8
((lp1177
I0
atRp1178
sS'knead-26.5'
p1179
g8
((lp1180
I2
atRp1181
sg373
g8
((lp1182
I12
atRp1183
sS'push-12'
p1184
g8
((lp1185
I0
atRp1186
sg819
g8
((lp1187
I1
atRp1188
sS'shake-22.3-1-1'
p1189
g8
((lp1190
I0
atRp1191
sS'urge-58.1'
p1192
g8
((lp1193
I0
atRp1194
sg689
g8
((lp1195
I0
atRp1196
sS'put-9.1-1'
p1197
g8
((lp1198
I0
atRp1199
sS'enforce-63'
p1200
g8
((lp1201
I0
aI1
atRp1202
sS'risk-94-1'
p1203
g8
((lp1204
I0
atRp1205
sS'wipe_manner-10.4.1'
p1206
g8
((lp1207
I1
aI2
atRp1208
sS'snooze-40.4'
p1209
g8
((lp1210
I1
atRp1211
sg7
g8
((lp1212
I0
aI1
aI3
aI4
aI21
aI22
aI23
aI24
atRp1213
sS'consider-29.9-2'
p1214
g8
((lp1215
I2
aI3
aI4
atRp1216
sg321
g8
((lp1217
I0
atRp1218
sg231
g8
((lp1219
I0
atRp1220
sS'consider-29.9-1'
p1221
g8
((lp1222
I0
aI1
aI2
atRp1223
sS'order-60'
p1224
g8
((lp1225
I0
atRp1226
sS'approve-77'
p1227
g8
((lp1228
I0
aI1
aI2
aI3
aI4
atRp1229
sg829
g8
((lp1230
I2
atRp1231
sg853
g8
((lp1232
I0
atRp1233
sS'adopt-93'
p1234
g8
((lp1235
I0
atRp1236
sg188
g8
((lp1237
I0
atRp1238
sS'comprehend-87.2-1'
p1239
g8
((lp1240
I0
aI1
aI2
atRp1241
sS'begin-55.1'
p1242
g8
((lp1243
I0
atRp1244
sg449
g8
((lp1245
I0
aI3
atRp1246
sS'bill-54.5'
p1247
g8
((lp1248
I0
atRp1249
sS'hold-15.1'
p1250
g8
((lp1251
I0
atRp1252
sS'risk-94'
p1253
g8
((lp1254
I0
aI1
atRp1255
sg404
g8
((lp1256
I0
aI3
atRp1257
sS'want-32.1-1'
p1258
g8
((lp1259
I0
aI1
aI3
aI4
aI5
aI6
aI7
atRp1260
sg708
g8
((lp1261
I0
atRp1262
sg475
g8
((lp1263
I0
atRp1264
sS'shake-22.3-2-1'
p1265
g8
((lp1266
I0
atRp1267
sg487
g8
((lp1268
I0
aI2
aI6
atRp1269
sg905
g8
((lp1270
I3
atRp1271
sS'chase-51.6'
p1272
g8
((lp1273
I0
atRp1274
sg993
g8
((lp1275
I0
atRp1276
sS'characterize-29.2-1'
p1277
g8
((lp1278
I0
aI1
atRp1279
sg676
g8
((lp1280
I0
aI3
atRp1281
sg315
g8
((lp1282
I0
atRp1283
sS'overstate-37.12'
p1284
g8
((lp1285
I0
atRp1286
sg35
g8
((lp1287
I0
aI3
atRp1288
sg337
g8
((lp1289
I0
atRp1290
sS'engender-27'
p1291
g8
((lp1292
I0
atRp1293
sg401
g8
((lp1294
I0
atRp1295
sS'complete-55.2'
p1296
g8
((lp1297
I0
aI1
atRp1298
sg1006
g8
((lp1299
I0
atRp1300
sg106
g8
((lp1301
I0
aI4
atRp1302
sg418
g8
((lp1303
I1
atRp1304
sg1068
g8
((lp1305
I0
atRp1306
sg318
g8
((lp1307
I2
atRp1308
sg340
g8
((lp1309
I0
aI8
atRp1310
sS'avoid-52'
p1311
g8
((lp1312
I0
aI1
aI2
aI3
atRp1313
sS'exist-47.1-1-1'
p1314
g8
((lp1315
I0
atRp1316
sg856
g8
((lp1317
I0
atRp1318
sS'exhale-40.1.3-2'
p1319
g8
((lp1320
I1
atRp1321
sS'exhale-40.1.3-1'
p1322
g8
((lp1323
I1
atRp1324
sS'declare-29.4-1-1-3'
p1325
g8
((lp1326
I0
atRp1327
sS'declare-29.4-1-1-2'
p1328
g8
((lp1329
I0
aI1
atRp1330
sS'declare-29.4-1-1-1'
p1331
g8
((lp1332
I0
atRp1333
sg653
g8
((lp1334
I2
aI5
atRp1335
sS'braid-41.2.2'
p1336
g8
((lp1337
I0
atRp1338
sg518
g8
((lp1339
I2
atRp1340
sS'marry-36.2'
p1341
g8
((lp1342
I1
atRp1343
sg47
g8
((lp1344
I0
atRp1345
sg1025
g8
((lp1346
I0
atRp1347
sg70
g8
((lp1348
I2
atRp1349
sg478
g8
((lp1350
I0
atRp1351
sg136
g8
((lp1352
I1
atRp1353
sg887
g8
((lp1354
I0
atRp1355
sg656
g8
((lp1356
I8
aI3
aI4
aI6
aI7
atRp1357
sg630
g8
((lp1358
I8
aI7
atRp1359
sS'long-32.2'
p1360
g8
((lp1361
I0
atRp1362
sg1071
g8
((lp1363
I0
aI2
aI3
aI4
aI5
atRp1364
sg890
g8
((lp1365
I0
atRp1366
sg142
g8
((lp1367
I0
aI4
atRp1368
sg330
g8
((lp1369
I0
aI4
atRp1370
sS'order-60-1'
p1371
g8
((lp1372
I0
aI1
atRp1373
sg411
g8
((lp1374
I0
aI2
atRp1375
sg243
g8
((lp1376
I0
aI5
atRp1377
sg586
g8
((lp1378
I4
atRp1379
sS'chew-39.2-1'
p1380
g8
((lp1381
I0
atRp1382
sS'forbid-67'
p1383
g8
((lp1384
I0
aI1
aI2
aI3
atRp1385
sS'remove-10.1'
p1386
g8
((lp1387
I0
atRp1388
sg1009
g8
((lp1389
I0
atRp1390
sS'indicate-78-1-1'
p1391
g8
((lp1392
I0
atRp1393
sg967
g8
((lp1394
I1
aI2
aI9
atRp1395
sg327
g8
((lp1396
I0
atRp1397
sS'interrogate-37.1.3'
p1398
g8
((lp1399
I0
atRp1400
sS'discover-84'
p1401
g8
((lp1402
I0
aI1
aI2
aI3
aI4
aI5
atRp1403
sS'devour-39.4-2'
p1404
g8
((lp1405
I0
atRp1406
sS'captain-29.8-1-1'
p1407
g8
((lp1408
I0
atRp1409
sS'declare-29.4-1-1'
p1410
g8
((lp1411
I0
atRp1412
sS'devour-39.4-1'
p1413
g8
((lp1414
I0
atRp1415
sS'hold-15.1-1'
p1416
g8
((lp1417
I0
atRp1418
sg203
g8
((lp1419
I0
atRp1420
sg1065
g8
((lp1421
I0
atRp1422
sg252
g8
((lp1423
I0
aI3
aI4
aI5
atRp1424
sg56
g8
((lp1425
I0
aI5
atRp1426
sg521
g8
((lp1427
I0
atRp1428
sg863
g8
((lp1429
I0
atRp1430
sS'pit-10.7'
p1431
g8
((lp1432
I0
atRp1433
sS'dress-41.1.1'
p1434
g8
((lp1435
I1
aI2
atRp1436
sg163
g8
((lp1437
I0
aI1
aI2
aI3
aI4
aI6
aI9
atRp1438
sS'neglect-75-1'
p1439
g8
((lp1440
I0
atRp1441
sS'neglect-75-2'
p1442
g8
((lp1443
I0
aI1
atRp1444
sg76
g8
((lp1445
I1
atRp1446
sg592
g8
((lp1447
I1
atRp1448
sS'declare-29.4'
p1449
g8
((lp1450
I2
aI3
aI4
atRp1451
sS'neglect-75-1-1'
p1452
g8
((lp1453
I0
atRp1454
sg899
g8
((lp1455
I1
aI2
atRp1456
sg670
g8
((lp1457
I0
aI1
aI9
aI8
aI7
atRp1458
sS'leave-51.2'
p1459
g8
((lp1460
I0
atRp1461
sS'pain-40.8.1'
p1462
g8
((lp1463
I1
atRp1464
sg41
g8
((lp1465
I0
atRp1466
sg925
g8
((lp1467
I1
atRp1468
sg240
g8
((lp1469
I1
aI4
atRp1470
sg589
g8
((lp1471
I5
aI6
atRp1472
sS'seem-109'
p1473
g8
((lp1474
I2
aI4
atRp1475
sS'chew-39.2-2'
p1476
g8
((lp1477
I0
atRp1478
sS'equip-13.4.2-1-1'
p1479
g8
((lp1480
I0
atRp1481
sg424
g8
((lp1482
I0
atRp1483
sS'contiguous_location-47.8'
p1484
g8
((lp1485
I0
atRp1486
sS'mine-10.9'
p1487
g8
((lp1488
I0
atRp1489
sS'gobble-39.3-2'
p1490
g8
((lp1491
I0
atRp1492
sg91
g8
((lp1493
I0
atRp1494
sS'equip-13.4.2-1'
p1495
g8
((lp1496
I0
atRp1497
sS'reach-51.8'
p1498
g8
((lp1499
I0
atRp1500
sg490
g8
((lp1501
I0
atRp1502
sS'comprehend-87.2'
p1503
g8
((lp1504
I0
aI1
aI3
aI4
aI5
aI6
atRp1505
sS'transfer_mesg-37.1.1-1-1'
p1506
g8
((lp1507
I0
atRp1508
sS'captain-29.8-1'
p1509
g8
((lp1510
I0
atRp1511
sg771
g8
((lp1512
I1
atRp1513
sg206
g8
((lp1514
I1
aI3
atRp1515
sS'confine-92'
p1516
g8
((lp1517
I0
atRp1518
sS'hurt-40.8.3-1'
p1519
g8
((lp1520
I0
atRp1521
sS'multiply-108'
p1522
g8
((lp1523
I0
atRp1524
sg53
g8
((lp1525
I0
aI9
atRp1526
sg696
g8
((lp1527
I0
aI1
aI4
aI5
aI6
atRp1528
sg62
g8
((lp1529
I1
atRp1530
sS'continue-55.3'
p1531
g8
((lp1532
I0
atRp1533
sS'own-100'
p1534
g8
((lp1535
I0
atRp1536
sS'accompany-51.7'
p1537
g8
((lp1538
I0
atRp1539
sg699
g8
((lp1540
I0
atRp1541
sS'try-61'
p1542
g8
((lp1543
I0
aI1
aI2
atRp1544
sS'cope-83-1-1'
p1545
g8
((lp1546
I0
atRp1547
sS'promise-37.13'
p1548
g8
((lp1549
I2
aI4
atRp1550
sg219
g8
((lp1551
I1
atRp1552
sS'correspond-36.1-1-1'
p1553
g8
((lp1554
I0
aI1
atRp1555
sS'spend_time-104'
p1556
g8
((lp1557
I0
atRp1558
sg601
g8
((lp1559
I5
atRp1560
sg225
g8
((lp1561
I0
atRp1562
sg228
g8
((lp1563
I1
atRp1564
sg172
g8
((lp1565
I1
aI2
aI3
atRp1566
sg284
g8
((lp1567
I0
atRp1568
sS'breathe-40.1.2-1'
p1569
g8
((lp1570
I0
atRp1571
sg216
g8
((lp1572
I1
atRp1573
sg466
g8
((lp1574
I0
aI2
atRp1575
sg1060
g8
((lp1576
I0
atRp1577
sg974
g8
((lp1578
I2
atRp1579
sg977
g8
((lp1580
I2
atRp1581
sg659
g8
((lp1582
I1
aI2
atRp1583
sg246
g8
((lp1584
I0
atRp1585
sg249
g8
((lp1586
I0
atRp1587
sg469
g8
((lp1588
I2
aI3
atRp1589
sg583
g8
((lp1590
I4
atRp1591
sg647
g8
((lp1592
I3
aI5
atRp1593
sS'defend-85'
p1594
g8
((lp1595
I0
aI2
aI3
atRp1596
sg510
g8
((lp1597
I0
atRp1598
sS'say-37.7-1'
p1599
g8
((lp1600
I0
aI1
atRp1601
sS'consider-29.9'
p1602
g8
((lp1603
I0
aI1
atRp1604
sg234
g8
((lp1605
I1
atRp1606
sg26
g8
((lp1607
I0
atRp1608
sg902
g8
((lp1609
I1
aI2
atRp1610
sS'learn-14-2'
p1611
g8
((lp1612
I0
atRp1613
sg393
g8
((lp1614
I0
aI5
atRp1615
sS'simple_dressing-41.3.1'
p1616
g8
((lp1617
I0
atRp1618
sS'register-54.1-1'
p1619
g8
((lp1620
I0
atRp1621
sg97
g8
((lp1622
I0
atRp1623
sg100
g8
((lp1624
I2
atRp1625
sg757
g8
((lp1626
I3
atRp1627
sS'hurt-40.8.3-2'
p1628
g8
((lp1629
I0
aI1
atRp1630
sS'admire-31.2-1'
p1631
g8
((lp1632
I0
atRp1633
sS'wish-62'
p1634
g8
((lp1635
I0
aI1
aI2
aI3
aI4
aI5
atRp1636
sS'spray-9.7-1-1'
p1637
g8
((lp1638
I0
atRp1639
sg850
g8
((lp1640
I0
aI1
aI3
aI4
atRp1641
sg421
g8
((lp1642
I1
atRp1643
sS'care-88.1'
p1644
g8
((lp1645
I1
aI2
atRp1646
sS'consume-66'
p1647
g8
((lp1648
I0
atRp1649
sg433
g8
((lp1650
I0
atRp1651
sS'vehicle-51.4.1-1'
p1652
g8
((lp1653
I0
atRp1654
sg255
g8
((lp1655
I0
atRp1656
sS'debone-10.8'
p1657
g8
((lp1658
I0
atRp1659
sg29
g8
((lp1660
I2
atRp1661
sg290
g8
((lp1662
I0
atRp1663
sg452
g8
((lp1664
I2
atRp1665
sg121
g8
((lp1666
I4
atRp1667
sS'void-106'
p1668
g8
((lp1669
I0
atRp1670
sg959
g8
((lp1671
I3
atRp1672
sg484
g8
((lp1673
I2
aI3
atRp1674
sg269
g8
((lp1675
I5
atRp1676
sS'establish-55.5'
p1677
g8
((lp1678
I0
atRp1679
sS'resign-10.11'
p1680
g8
((lp1681
I1
atRp1682
sS'allow-64'
p1683
g8
((lp1684
I0
aI1
aI2
aI3
aI4
atRp1685
sS'succeed-74-2'
p1686
g8
((lp1687
I1
aI4
atRp1688
sS'murder-42.1-1'
p1689
g8
((lp1690
I0
atRp1691
sg752
g8
((lp1692
I1
atRp1693
sg296
g8
((lp1694
I0
atRp1695
sg531
g8
((lp1696
I2
atRp1697
sg309
g8
((lp1698
I2
atRp1699
sg847
g8
((lp1700
I0
atRp1701
sg222
g8
((lp1702
I0
aI4
atRp1703
sg650
g8
((lp1704
I2
atRp1705
sS'cut-21.1-1'
p1706
g8
((lp1707
I0
atRp1708
sS'want-32.1-1-1'
p1709
g8
((lp1710
I0
aI1
atRp1711
sg964
g8
((lp1712
I1
atRp1713
sg275
g8
((lp1714
I0
atRp1715
sg768
g8
((lp1716
I0
atRp1717
sS'fulfilling-13.4.1-1'
p1718
g8
((lp1719
I0
atRp1720
sS'indicate-78'
p1721
g8
((lp1722
I0
aI1
aI2
aI3
aI4
atRp1723
sg774
g8
((lp1724
I0
atRp1725
sg293
g8
((lp1726
I1
atRp1727
sS'correspond-36.1-1'
p1728
g8
((lp1729
I2
atRp1730
sS'contribute-13.2-2-1'
p1731
g8
((lp1732
I0
atRp1733
sg151
g8
((lp1734
I2
aI6
atRp1735
sg472
g8
((lp1736
I1
atRp1737
sg261
g8
((lp1738
I0
atRp1739
sS'amalgamate-22.2-3'
p1740
g8
((lp1741
I0
atRp1742
sg440
g8
((lp1743
I1
atRp1744
sg463
g8
((lp1745
I0
atRp1746
sg145
g8
((lp1747
I0
atRp1748
sS'declare-29.4-2'
p1749
g8
((lp1750
I0
aI1
atRp1751
sS'declare-29.4-1'
p1752
g8
((lp1753
I0
aI1
atRp1754
sS'sight-30.2'
p1755
g8
((lp1756
I0
atRp1757
sg166
g8
((lp1758
I2
atRp1759
sg258
g8
((lp1760
I0
atRp1761
sg738
g8
((lp1762
I4
aI5
aI6
atRp1763
sg481
g8
((lp1764
I0
atRp1765
sS'succeed-74-1-1'
p1766
g8
((lp1767
I0
atRp1768
sg21
g8
((lp1769
I0
aI5
atRp1770
sg884
g8
((lp1771
I0
atRp1772
sg866
g8
((lp1773
I0
atRp1774
sS'cost-54.2'
p1775
g8
((lp1776
I0
atRp1777
sg430
g8
((lp1778
I1
atRp1779
stp1780
a(I63
(g2
g3
g176
g2
t(dp1781
S'long-32.2-1'
p1782
g8
((lp1783
I0
atRp1784
sg243
g8
((lp1785
I3
atRp1786
sS'exchange-13.6-1-1'
p1787
g8
((lp1788
I0
atRp1789
sS'marvel-31.3-3'
p1790
g8
((lp1791
I0
atRp1792
sg206
g8
((lp1793
I4
atRp1794
sS'fulfilling-13.4.1-2'
p1795
g8
((lp1796
I0
atRp1797
sS'captain-29.8'
p1798
g8
((lp1799
I0
atRp1800
stp1801
a(I64
(g2
g3
g2
g525
g325
g2
t(dp1802
g327
g8
((lp1803
I5
atRp1804
sg142
g8
((lp1805
I6
atRp1806
sg106
g8
((lp1807
I6
atRp1808
sg56
g8
((lp1809
I8
atRp1810
sg340
g8
((lp1811
I4
atRp1812
sg115
g8
((lp1813
I6
atRp1814
stp1815
a(I65
(g2
g3
g176
g2
g556
g2
t(dp1816
g213
g8
((lp1817
I1
atRp1818
sg200
g8
((lp1819
I1
atRp1820
stp1821
a(I66
(g2
g3
S'"out"'
t(dp1822
g967
g8
((lp1823
I8
atRp1824
stp1825
a(I67
(g2
g3
S'"as"'
p1826
g2
t(dp1827
S'masquerade-29.6'
p1828
g8
((lp1829
I0
atRp1830
stp1831
a(I68
(g2
g3
g525
g95
g2
t(dp1832
S'stimulus_subject-30.4'
p1833
g8
((lp1834
I1
atRp1835
stp1836
a(I69
(g2
g3
g18
g2
t(dp1837
S'change_bodily_state-40.8.4'
p1838
g8
((lp1839
I1
atRp1840
sg1476
g8
((lp1841
I2
atRp1842
sg659
g8
((lp1843
I5
atRp1844
sS'body_internal_states-40.6'
p1845
g8
((lp1846
I1
atRp1847
sg1462
g8
((lp1848
I2
atRp1849
sS'marvel-31.3-4'
p1850
g8
((lp1851
I0
atRp1852
sg1680
g8
((lp1853
I2
atRp1854
sS'refrain-69'
p1855
g8
((lp1856
I1
aI2
atRp1857
sg606
g8
((lp1858
I1
atRp1859
sS'tingle-40.8.2'
p1860
g8
((lp1861
I1
atRp1862
sS'flinch-40.5'
p1863
g8
((lp1864
I1
atRp1865
sg932
g8
((lp1866
I0
atRp1867
sg59
g8
((lp1868
I2
atRp1869
sg696
g8
((lp1870
I8
atRp1871
sS'withdraw-82-3'
p1872
g8
((lp1873
I1
atRp1874
sg879
g8
((lp1875
I1
aI2
atRp1876
sS'separate-23.1-1'
p1877
g8
((lp1878
I0
atRp1879
sg70
g8
((lp1880
I1
atRp1881
sg967
g8
((lp1882
I3
atRp1883
sg73
g8
((lp1884
I1
atRp1885
stp1886
a(I70
(g2
g3
g18
g2
g5
g2
t(dp1887
g630
g8
((lp1888
I3
aI4
aI5
aI6
atRp1889
stp1890
a(I71
(g2
g3
g325
g2
g551
g2
t(dp1891
S'cooperate-73-1'
p1892
g8
((lp1893
I3
atRp1894
stp1895
a(I72
(g2
g3
g2
g282
g2
g645
g2
t(dp1896
g993
g8
((lp1897
I3
atRp1898
stp1899
a(I73
(g2
g3
g2
g620
g2
t(dp1900
g59
g8
((lp1901
I0
atRp1902
stp1903
a(I74
(g2
g3
g2
S'"out" "of"'
p1904
g2
g176
g2
t(dp1905
g53
g8
((lp1906
I11
aI6
atRp1907
stp1908
a(I75
(g2
g3
g514
g2
g2
t(dp1909
g275
g8
((lp1910
I2
atRp1911
stp1912
a(I76
(g2
g3
g267
g2
g551
g2
t(dp1913
g142
g8
((lp1914
I12
atRp1915
stp1916
a(I77
(g2
g3
g2
g636
g2
t(dp1917
g284
g8
((lp1918
I1
atRp1919
sg287
g8
((lp1920
I1
atRp1921
sg290
g8
((lp1922
I2
atRp1923
stp1924
a(I78
(g2
g3
g2
g2
g18
g2
t(dp1925
g62
g8
((lp1926
I4
atRp1927
sg53
g8
((lp1928
I5
atRp1929
stp1930
a(I79
(g2
g3
g282
g2
g95
g2
t(dp1931
g121
g8
((lp1932
I3
atRp1933
stp1934
a(I80
(g2
g3
g525
g325
g2
t(dp1935
g106
g8
((lp1936
I11
atRp1937
sg142
g8
((lp1938
I11
atRp1939
stp1940
a(I81
(g2
g3
g802
t(dp1941
g109
g8
((lp1942
I6
atRp1943
sS'mix-22.1-1-1'
p1944
g8
((lp1945
I1
atRp1946
sS'bump-18.4-1'
p1947
g8
((lp1948
I0
atRp1949
sg157
g8
((lp1950
I1
atRp1951
sg118
g8
((lp1952
I2
atRp1953
stp1954
a(I82
(g2
g3
g2
g645
g2
t(dp1955
g1068
g8
((lp1956
I1
atRp1957
sg656
g8
((lp1958
I5
atRp1959
stp1960
a(I83
(g2
g3
g2
g170
g2
t(dp1961
g315
g8
((lp1962
I1
atRp1963
stp1964
a(I84
(g2
g3
g2
S'"way"'
g12
g2
t(dp1965
S'push-12-1-1'
p1966
g8
((lp1967
I1
atRp1968
stp1969
a(I85
(g2
g3
g514
g2
t(dp1970
g1083
g8
((lp1971
I0
atRp1972
sg133
g8
((lp1973
I0
atRp1974
sg518
g8
((lp1975
I1
atRp1976
stp1977
a(I86
(g2
g3
g2
g273
g2
t(dp1978
S'consume-66-1'
p1979
g8
((lp1980
I0
aI1
atRp1981
sg38
g8
((lp1982
I0
atRp1983
sg531
g8
((lp1984
I3
atRp1985
sg142
g8
((lp1986
I1
atRp1987
sg847
g8
((lp1988
I1
atRp1989
sg275
g8
((lp1990
I1
atRp1991
sg340
g8
((lp1992
I7
atRp1993
sg518
g8
((lp1994
I3
atRp1995
sg315
g8
((lp1996
I1
atRp1997
sS'base-97.1'
p1998
g8
((lp1999
I0
aI1
aI2
aI3
atRp2000
sg521
g8
((lp2001
I1
atRp2002
stp2003
a(I87
(g2
g3
g4
g2
g2
t(dp2004
g7
g8
((lp2005
I16
aI15
atRp2006
stp2007
a(I88
(g2
g3
g645
g2
g2
t(dp2008
g656
g8
((lp2009
I9
aI10
aI11
aI13
atRp2010
stp2011
a(I89
(g2
g3
g5
g2
t(dp2012
S'lecture-37.11-1-1'
p2013
g8
((lp2014
I0
atRp2015
sg370
g8
((lp2016
I5
aI6
atRp2017
sS'lecture-37.11-2'
p2018
g8
((lp2019
I0
atRp2020
sg656
g8
((lp2021
I2
atRp2022
sg151
g8
((lp2023
I4
atRp2024
sg630
g8
((lp2025
I0
atRp2026
sg1166
g8
((lp2027
I0
aI2
atRp2028
sS'marvel-31.3-2'
p2029
g8
((lp2030
I0
atRp2031
sS'learn-14-2-1'
p2032
g8
((lp2033
I0
atRp2034
sg373
g8
((lp2035
I1
aI2
aI3
aI4
aI5
aI6
atRp2036
sg109
g8
((lp2037
I9
atRp2038
sS'see-30.1-1-1'
p2039
g8
((lp2040
I0
atRp2041
sg7
g8
((lp2042
I10
aI12
aI13
aI14
atRp2043
sS'lecture-37.11-1'
p2044
g8
((lp2045
I1
atRp2046
sS'lecture-37.11'
p2047
g8
((lp2048
I0
atRp2049
sg172
g8
((lp2050
I0
atRp2051
sS'battle-36.4-1'
p2052
g8
((lp2053
I1
aI2
aI3
aI4
aI5
aI6
atRp2054
sg349
g8
((lp2055
I1
aI2
aI3
atRp2056
stp2057
a(I90
(g2
g3
g2
g282
g2
t(dp2058
g284
g8
((lp2059
I2
atRp2060
sg993
g8
((lp2061
I2
atRp2062
sg287
g8
((lp2063
I2
atRp2064
sg296
g8
((lp2065
I1
atRp2066
sg1206
g8
((lp2067
I0
atRp2068
sg890
g8
((lp2069
I2
atRp2070
sg188
g8
((lp2071
I1
atRp2072
sg275
g8
((lp2073
I3
atRp2074
sg1386
g8
((lp2075
I1
atRp2076
sg293
g8
((lp2077
I2
atRp2078
sg561
g8
((lp2079
I0
atRp2080
sg290
g8
((lp2081
I1
atRp2082
sg1487
g8
((lp2083
I1
atRp2084
sg689
g8
((lp2085
I1
atRp2086
stp2087
a(I91
(g2
g3
g2
S'Prep[TYP=spatial,+dest]'
g2
t(dp2088
g993
g8
((lp2089
I1
atRp2090
stp2091
a(I92
(g2
g3
t(dp2092
S'body_internal_motion-49'
p2093
g8
((lp2094
I0
atRp2095
sg932
g8
((lp2096
I1
atRp2097
sS'hurt-40.8.3-1-1'
p2098
g8
((lp2099
I0
atRp2100
sg427
g8
((lp2101
I1
atRp2102
sg518
g8
((lp2103
I0
atRp2104
sg115
g8
((lp2105
I2
atRp2106
sg561
g8
((lp2107
I2
atRp2108
sg200
g8
((lp2109
I5
atRp2110
sg1845
g8
((lp2111
I0
atRp2112
sg943
g8
((lp2113
I1
atRp2114
sS'fill-9.8-1'
p2115
g8
((lp2116
I0
atRp2117
sg959
g8
((lp2118
I0
atRp2119
sg1209
g8
((lp2120
I0
atRp2121
sS'disappearance-48.2'
p2122
g8
((lp2123
I0
atRp2124
sg829
g8
((lp2125
I1
atRp2126
sg349
g8
((lp2127
I0
atRp2128
sg819
g8
((lp2129
I0
atRp2130
sg370
g8
((lp2131
I0
aI3
atRp2132
sg1053
g8
((lp2133
I6
atRp2134
sg106
g8
((lp2135
I2
atRp2136
sg109
g8
((lp2137
I0
aI5
atRp2138
sg112
g8
((lp2139
I0
aI4
atRp2140
sS'contribute-13.2-1-1'
p2141
g8
((lp2142
I0
atRp2143
sg1319
g8
((lp2144
I0
atRp2145
sg1322
g8
((lp2146
I0
atRp2147
sg738
g8
((lp2148
I0
atRp2149
sg653
g8
((lp2150
I0
atRp2151
sg679
g8
((lp2152
I0
atRp2153
sg1341
g8
((lp2154
I0
atRp2155
sS'escape-51.1'
p2156
g8
((lp2157
I0
atRp2158
sS'cope-83-1'
p2159
g8
((lp2160
I0
atRp2161
sg884
g8
((lp2162
I1
atRp2163
sg887
g8
((lp2164
I1
atRp2165
sg656
g8
((lp2166
I0
atRp2167
sg890
g8
((lp2168
I1
atRp2169
sg757
g8
((lp2170
I0
atRp2171
sg142
g8
((lp2172
I2
atRp2173
sg411
g8
((lp2174
I1
atRp2175
sg1009
g8
((lp2176
I2
atRp2177
sg2052
g8
((lp2178
I0
atRp2179
sg967
g8
((lp2180
I0
atRp2181
sg659
g8
((lp2182
I0
atRp2183
sg1050
g8
((lp2184
I1
atRp2185
sS'amalgamate-22.2-3-2'
p2186
g8
((lp2187
I0
atRp2188
sS'leave-51.2-1'
p2189
g8
((lp2190
I0
atRp2191
sg1434
g8
((lp2192
I0
atRp2193
sg76
g8
((lp2194
I2
atRp2195
sg1476
g8
((lp2196
I1
atRp2197
sg1380
g8
((lp2198
I1
atRp2199
sg1462
g8
((lp2200
I0
atRp2201
sg1855
g8
((lp2202
I0
atRp2203
sg589
g8
((lp2204
I0
atRp2205
sg424
g8
((lp2206
I2
atRp2207
sg206
g8
((lp2208
I0
atRp2209
sg580
g8
((lp2210
I0
atRp2211
sg1860
g8
((lp2212
I0
atRp2213
sg53
g8
((lp2214
I1
atRp2215
sg598
g8
((lp2216
I0
atRp2217
sg601
g8
((lp2218
I0
atRp2219
sS'dine-39.5'
p2220
g8
((lp2221
I0
atRp2222
sg609
g8
((lp2223
I0
atRp2224
sg1838
g8
((lp2225
I0
atRp2226
sg572
g8
((lp2227
I0
atRp2228
sg696
g8
((lp2229
I9
atRp2230
sS'appeal-31.4-3'
p2231
g8
((lp2232
I0
atRp2233
sS'entity_specific_cos-45.5'
p2234
g8
((lp2235
I0
atRp2236
sg1531
g8
((lp2237
I1
aI2
atRp2238
sg974
g8
((lp2239
I3
atRp2240
sg977
g8
((lp2241
I3
atRp2242
sg1680
g8
((lp2243
I0
atRp2244
sg469
g8
((lp2245
I4
atRp2246
sg583
g8
((lp2247
I0
atRp2248
sg647
g8
((lp2249
I0
atRp2250
sg330
g8
((lp2251
I2
atRp2252
sg97
g8
((lp2253
I1
atRp2254
sg100
g8
((lp2255
I0
atRp2256
sg575
g8
((lp2257
I0
atRp2258
sg1863
g8
((lp2259
I0
atRp2260
sS'hiccup-40.1.1'
p2261
g8
((lp2262
I0
atRp2263
sg1644
g8
((lp2264
I0
atRp2265
sS'smell_emission-43.3'
p2266
g8
((lp2267
I0
aI1
atRp2268
sg1872
g8
((lp2269
I0
atRp2270
sS'withdraw-82-1'
p2271
g8
((lp2272
I0
atRp2273
sg606
g8
((lp2274
I0
atRp2275
sS'calve-28'
p2276
g8
((lp2277
I0
atRp2278
sg1944
g8
((lp2279
I0
atRp2280
sg586
g8
((lp2281
I0
atRp2282
sg121
g8
((lp2283
I0
atRp2284
sS'amalgamate-22.2-2-1'
p2285
g8
((lp2286
I0
atRp2287
sS'amalgamate-22.2-1-1'
p2288
g8
((lp2289
I0
atRp2290
sS'exist-47.1-1'
p2291
g8
((lp2292
I0
atRp2293
sg7
g8
((lp2294
I2
atRp2295
sS'settle-89'
p2296
g8
((lp2297
I0
atRp2298
sg118
g8
((lp2299
I1
atRp2300
sg269
g8
((lp2301
I4
atRp2302
sg487
g8
((lp2303
I1
atRp2304
sg714
g8
((lp2305
I0
atRp2306
sg373
g8
((lp2307
I0
atRp2308
sg650
g8
((lp2309
I0
atRp2310
sg771
g8
((lp2311
I0
atRp2312
sS'amalgamate-22.2-3-1-1'
p2313
g8
((lp2314
I0
atRp2315
sg2044
g8
((lp2316
I0
atRp2317
sg151
g8
((lp2318
I0
atRp2319
sS'learn-14-1'
p2320
g8
((lp2321
I0
atRp2322
sS'contiguous_location-47.8-2'
p2323
g8
((lp2324
I0
atRp2325
sg986
g8
((lp2326
I0
atRp2327
sg1686
g8
((lp2328
I0
atRp2329
sS'succeed-74-1'
p2330
g8
((lp2331
I0
atRp2332
sS'berry-13.7'
p2333
g8
((lp2334
I0
atRp2335
sg255
g8
((lp2336
I1
atRp2337
sg258
g8
((lp2338
I1
atRp2339
stp2340
a(I93
(g2
g3
g2
g2
g176
g2
t(dp2341
g1247
g8
((lp2342
I2
atRp2343
sg197
g8
((lp2344
I2
atRp2345
sg53
g8
((lp2346
I10
atRp2347
stp2348
a(I94
(g2
g3
g2
S'"between"'
g2
t(dp2349
g542
g8
((lp2350
I0
atRp2351
stp2352
a(I95
(g2
g3
g282
g2
g80
g2
t(dp2353
g798
g8
((lp2354
I4
atRp2355
stp2356
a(I96
(g2
g3
g2
g1081
g2
t(dp2357
g275
g8
((lp2358
I1
atRp2359
sg531
g8
((lp2360
I3
atRp2361
sg315
g8
((lp2362
I1
atRp2363
sg340
g8
((lp2364
I7
atRp2365
sg1594
g8
((lp2366
I1
atRp2367
stp2368
a(I97
(g2
g3
S'Prep[TYP=spatial,+spatial]'
p2369
g2
t(dp2370
S'peer-30.3'
p2371
g8
((lp2372
I0
atRp2373
sg100
g8
((lp2374
I1
atRp2375
sg738
g8
((lp2376
I1
atRp2377
stp2378
a(I98
(g2
g3
g4
g2
t(dp2379
g2032
g8
((lp2380
I0
atRp2381
sS'marvel-31.3-6'
p2382
g8
((lp2383
I0
atRp2384
sg2039
g8
((lp2385
I0
atRp2386
sg59
g8
((lp2387
I2
atRp2388
sg2266
g8
((lp2389
I2
atRp2390
sg2271
g8
((lp2391
I1
aI2
atRp2392
stp2393
a(I99
(g2
g3
g2
g80
g2
t(dp2394
g469
g8
((lp2395
I0
atRp2396
sS'wipe_instr-10.4.2-1'
p2397
g8
((lp2398
I0
atRp2399
sg484
g8
((lp2400
I0
atRp2401
sg1006
g8
((lp2402
I1
atRp2403
sS'funnel-9.3'
p2404
g8
((lp2405
I0
atRp2406
sg1009
g8
((lp2407
I1
atRp2408
stp2409
a(I100
(g2
g3
S'"over"'
p2410
g2
t(dp2411
g185
g8
((lp2412
I1
atRp2413
sS'marvel-31.3-8'
p2414
g8
((lp2415
I0
atRp2416
sg595
g8
((lp2417
I1
atRp2418
stp2419
a(I101
(g2
g3
g267
g2
g325
g2
t(dp2420
g106
g8
((lp2421
I12
atRp2422
sg142
g8
((lp2423
I12
atRp2424
stp2425
a(I102
(g2
g3
g546
g2
g2
t(dp2426
g275
g8
((lp2427
I2
atRp2428
stp2429
a(I103
(g2
g3
g5
g2
g325
g2
t(dp2430
g109
g8
((lp2431
I8
atRp2432
sg370
g8
((lp2433
I4
atRp2434
stp2435
a(I104
(g2
g3
g496
g2
t(dp2436
g172
g8
((lp2437
I0
atRp2438
stp2439
a(I105
(g2
g3
g18
g2
g95
g2
t(dp2440
g154
g8
((lp2441
I1
atRp2442
sg771
g8
((lp2443
I4
atRp2444
stp2445
a(I106
(g2
g3
g325
g2
g273
g2
t(dp2446
g1892
g8
((lp2447
I1
atRp2448
sg502
g8
((lp2449
I1
atRp2450
stp2451
a(I107
(g2
g3
g267
g2
t(dp2452
g136
g8
((lp2453
I3
atRp2454
sg100
g8
((lp2455
I5
atRp2456
sg1787
g8
((lp2457
I0
atRp2458
sg142
g8
((lp2459
I10
atRp2460
sg106
g8
((lp2461
I10
atRp2462
sg115
g8
((lp2463
I9
atRp2464
sg118
g8
((lp2465
I0
atRp2466
sg185
g8
((lp2467
I1
atRp2468
sS'funnel-9.3-2-1'
p2469
g8
((lp2470
I0
atRp2471
sg1179
g8
((lp2472
I0
atRp2473
sg1083
g8
((lp2474
I0
atRp2475
sg73
g8
((lp2476
I0
atRp2477
sg269
g8
((lp2478
I3
atRp2479
stp2480
a(I108
(g2
g3
g2
g2410
g2
t(dp2481
S'multiply-108-3'
p2482
g8
((lp2483
I0
atRp2484
stp2485
a(I109
(g2
g3
g95
g2
g2
t(dp2486
S'indicate-78-1'
p2487
g8
((lp2488
I0
aI1
aI2
aI3
atRp2489
sg752
g8
((lp2490
I2
atRp2491
sg729
g8
((lp2492
I1
aI2
aI3
aI4
aI5
aI6
atRp2493
sg670
g8
((lp2494
I15
aI13
aI14
aI5
atRp2495
sg1548
g8
((lp2496
I3
atRp2497
sg275
g8
((lp2498
I2
atRp2499
sg783
g8
((lp2500
I2
atRp2501
sg151
g8
((lp2502
I3
aI7
atRp2503
sg696
g8
((lp2504
I2
aI3
atRp2505
sg711
g8
((lp2506
I1
aI2
aI3
aI4
aI5
aI6
atRp2507
sg163
g8
((lp2508
I8
atRp2509
stp2510
a(I110
(g2
g3
g2
S'"among"'
g2
t(dp2511
g130
g8
((lp2512
I1
atRp2513
stp2514
a(I111
(g2
g3
g2
g1826
g2
t(dp2515
g1398
g8
((lp2516
I1
atRp2517
sg32
g8
((lp2518
I3
atRp2519
sg1503
g8
((lp2520
I2
atRp2521
sS'characterize-29.2'
p2522
g8
((lp2523
I0
aI1
aI2
atRp2524
sg905
g8
((lp2525
I1
atRp2526
sg853
g8
((lp2527
I1
atRp2528
sg261
g8
((lp2529
I3
atRp2530
sg41
g8
((lp2531
I2
atRp2532
sg1118
g8
((lp2533
I1
atRp2534
sS'cheat-10.6-1-1'
p2535
g8
((lp2536
I0
atRp2537
stp2538
a(I112
(g2
g3
g2
S'"respecting"'
p2539
g2
t(dp2540
g315
g8
((lp2541
I1
atRp2542
stp2543
a(I113
(g2
g3
g273
g2
t(dp2544
g1892
g8
((lp2545
I0
atRp2546
sg502
g8
((lp2547
I0
atRp2548
sg2018
g8
((lp2549
I1
atRp2550
sg1380
g8
((lp2551
I3
atRp2552
sS'rely-70'
p2553
g8
((lp2554
I0
aI1
aI2
aI3
aI4
atRp2555
sg133
g8
((lp2556
I0
atRp2557
sS'gorge-39.6'
p2558
g8
((lp2559
I0
atRp2560
sS'marvel-31.3-7'
p2561
g8
((lp2562
I0
atRp2563
sg518
g8
((lp2564
I1
atRp2565
sS'appeal-31.4-2'
p2566
g8
((lp2567
I0
atRp2568
sg1088
g8
((lp2569
I1
atRp2570
sS'focus-87.1'
p2571
g8
((lp2572
I0
aI1
aI2
aI3
atRp2573
sg2220
g8
((lp2574
I1
atRp2575
sg2296
g8
((lp2576
I1
atRp2577
sg172
g8
((lp2578
I0
atRp2579
sg829
g8
((lp2580
I0
atRp2581
stp2582
a(I114
(g2
g3
g5
g2
g95
g2
t(dp2583
g109
g8
((lp2584
I7
atRp2585
sg151
g8
((lp2586
I5
atRp2587
stp2588
a(I115
(g2
g3
g2
g18
g2
g325
g2
t(dp2589
g56
g8
((lp2590
I14
atRp2591
stp2592
a(I116
(g2
g3
g19
g2
t(dp2593
g884
g8
((lp2594
I2
atRp2595
sS'wipe_manner-10.4.1-1'
p2596
g8
((lp2597
I0
atRp2598
sg56
g8
((lp2599
I2
atRp2600
sg1838
g8
((lp2601
I1
atRp2602
sg393
g8
((lp2603
I3
atRp2604
sg1060
g8
((lp2605
I2
atRp2606
sg659
g8
((lp2607
I4
atRp2608
sg1380
g8
((lp2609
I2
atRp2610
sg531
g8
((lp2611
I0
atRp2612
sg1845
g8
((lp2613
I1
atRp2614
sg1088
g8
((lp2615
I1
atRp2616
sg1863
g8
((lp2617
I1
atRp2618
sg925
g8
((lp2619
I0
atRp2620
sg1860
g8
((lp2621
I1
atRp2622
sg502
g8
((lp2623
I2
atRp2624
sS'marvel-31.3-1'
p2625
g8
((lp2626
I0
atRp2627
sg653
g8
((lp2628
I4
atRp2629
sS'appeal-31.4-1'
p2630
g8
((lp2631
I0
atRp2632
sg327
g8
((lp2633
I2
atRp2634
sg647
g8
((lp2635
I2
atRp2636
stp2637
a(I117
(g2
g3
g2
g95
g2
g273
g2
t(dp2638
g197
g8
((lp2639
I1
atRp2640
sg142
g8
((lp2641
I8
atRp2642
stp2643
a(I118
(g2
g3
g1904
g2
t(dp2644
g73
g8
((lp2645
I1
atRp2646
sg967
g8
((lp2647
I3
atRp2648
stp2649
a(I119
(g2
g3
S'"upon"'
g2
g2
t(dp2650
g278
g8
((lp2651
I0
atRp2652
stp2653
a(I120
(g2
g3
g2
S'"apart"'
p2654
t(dp2655
g59
g8
((lp2656
I1
atRp2657
stp2658
a(I121
(g2
g3
g2539
g2
t(dp2659
g172
g8
((lp2660
I0
atRp2661
stp2662
a(I122
(g2
g3
g325
g2
g2
t(dp2663
g1728
g8
((lp2664
I0
aI1
atRp2665
stp2666
a(I123
(g2
g3
g2
g2
g1904
g2
t(dp2667
g62
g8
((lp2668
I4
atRp2669
sg53
g8
((lp2670
I5
atRp2671
stp2672
a(I124
(g2
g3
S'"until"'
g2
t(dp2673
g1531
g8
((lp2674
I3
aI4
atRp2675
stp2676
a(I125
(g2
g3
g267
g2
g273
g2
t(dp2677
g142
g8
((lp2678
I12
atRp2679
stp2680
a(I126
(g2
g3
g2
g267
g2
t(dp2681
g714
g8
((lp2682
I4
aI6
atRp2683
sg330
g8
((lp2684
I6
atRp2685
sg337
g8
((lp2686
I3
atRp2687
sg100
g8
((lp2688
I7
atRp2689
sg1113
g8
((lp2690
I1
aI2
atRp2691
sg106
g8
((lp2692
I7
atRp2693
sg2093
g8
((lp2694
I1
atRp2695
sg393
g8
((lp2696
I1
atRp2697
sg340
g8
((lp2698
I10
aI5
atRp2699
sg679
g8
((lp2700
I5
aI7
atRp2701
sg115
g8
((lp2702
I7
atRp2703
sg73
g8
((lp2704
I3
atRp2705
sg455
g8
((lp2706
I0
atRp2707
sg738
g8
((lp2708
I8
aI10
atRp2709
sg384
g8
((lp2710
I0
atRp2711
sg53
g8
((lp2712
I3
atRp2713
sg1179
g8
((lp2714
I1
atRp2715
sg490
g8
((lp2716
I2
atRp2717
sg269
g8
((lp2718
I2
atRp2719
sg1192
g8
((lp2720
I1
atRp2721
sg136
g8
((lp2722
I0
atRp2723
sg327
g8
((lp2724
I6
atRp2725
sg418
g8
((lp2726
I0
atRp2727
sg757
g8
((lp2728
I5
aI7
atRp2729
sg142
g8
((lp2730
I7
atRp2731
sg275
g8
((lp2732
I1
atRp2733
sg774
g8
((lp2734
I2
atRp2735
sg360
g8
((lp2736
I0
atRp2737
sg472
g8
((lp2738
I0
atRp2739
sg56
g8
((lp2740
I9
aI12
atRp2741
stp2742
a(I127
(g2
g3
S'Prep[TYP=spatial,+path]'
p2743
g2
t(dp2744
g714
g8
((lp2745
I1
atRp2746
sS'meander-47.7'
p2747
g8
((lp2748
I0
atRp2749
sg757
g8
((lp2750
I1
atRp2751
sg967
g8
((lp2752
I4
atRp2753
sg679
g8
((lp2754
I1
atRp2755
sS'coil-9.6'
p2756
g8
((lp2757
I1
atRp2758
stp2759
a(I128
(g2
g3
g2
S'"down"'
t(dp2760
g1490
g8
((lp2761
I1
atRp2762
sg91
g8
((lp2763
I2
atRp2764
stp2765
a(I129
(g2
g3
g95
g2
g325
g2
t(dp2766
g106
g8
((lp2767
I12
atRp2768
sg142
g8
((lp2769
I12
atRp2770
stp2771
a(I130
(g2
g3
g2
g5
g2
t(dp2772
g1398
g8
((lp2773
I2
atRp2774
sg1506
g8
((lp2775
I2
atRp2776
sg670
g8
((lp2777
I6
atRp2778
sg315
g8
((lp2779
I1
atRp2780
sg7
g8
((lp2781
I11
aI5
atRp2782
sg676
g8
((lp2783
I4
atRp2784
stp2785
a(I131
(g2
g3
g2
g95
g2
g551
g2
t(dp2786
g142
g8
((lp2787
I8
atRp2788
stp2789
a(I132
(g2
g3
g12
g2
t(dp2790
g1966
g8
((lp2791
I0
atRp2792
sg82
g8
((lp2793
I0
atRp2794
stp2795
a(I133
(g2
g3
g2
g636
g2
g282
g2
t(dp2796
g284
g8
((lp2797
I4
atRp2798
sg290
g8
((lp2799
I4
atRp2800
stp2801
a(I134
(g2
g3
g2
g2
t(dp2802
g993
g8
((lp2803
I4
atRp2804
sg387
g8
((lp2805
I3
atRp2806
sg1140
g8
((lp2807
I0
atRp2808
sg670
g8
((lp2809
I11
aI12
aI10
aI3
aI4
atRp2810
sg1124
g8
((lp2811
I0
aI1
atRp2812
sg1247
g8
((lp2813
I1
atRp2814
sg676
g8
((lp2815
I2
aI5
aI6
aI7
atRp2816
sg1014
g8
((lp2817
I1
atRp2818
sg1506
g8
((lp2819
I1
aI3
aI4
aI5
aI6
atRp2820
sg203
g8
((lp2821
I1
aI3
atRp2822
sS'transfer_mesg-37.1.1-1'
p2823
g8
((lp2824
I0
atRp2825
sS'performance-26.7-2-1'
p2826
g8
((lp2827
I0
atRp2828
sS'send-11.1-1'
p2829
g8
((lp2830
I0
atRp2831
sg62
g8
((lp2832
I2
atRp2833
sg1192
g8
((lp2834
I2
aI3
atRp2835
sg699
g8
((lp2836
I2
atRp2837
sg1025
g8
((lp2838
I1
atRp2839
sg1214
g8
((lp2840
I1
atRp2841
sg1548
g8
((lp2842
I0
aI1
atRp2843
sg1224
g8
((lp2844
I1
atRp2845
sg2404
g8
((lp2846
I1
atRp2847
sg1449
g8
((lp2848
I1
atRp2849
sg1163
g8
((lp2850
I2
atRp2851
sS'throw-17.1-1'
p2852
g8
((lp2853
I0
atRp2854
sg315
g8
((lp2855
I2
aI3
aI4
atRp2856
sg816
g8
((lp2857
I0
atRp2858
sg1001
g8
((lp2859
I1
atRp2860
sg249
g8
((lp2861
I1
atRp2862
sg798
g8
((lp2863
I1
atRp2864
sg905
g8
((lp2865
I0
atRp2866
sg234
g8
((lp2867
I2
atRp2868
sS'carry-11.4-1-1'
p2869
g8
((lp2870
I0
atRp2871
sg337
g8
((lp2872
I7
atRp2873
sg1291
g8
((lp2874
I1
atRp2875
sg246
g8
((lp2876
I1
atRp2877
sg191
g8
((lp2878
I2
atRp2879
sS'force-59-1'
p2880
g8
((lp2881
I0
atRp2882
sg1647
g8
((lp2883
I1
atRp2884
sS'slide-11.2-1'
p2885
g8
((lp2886
I0
atRp2887
sg7
g8
((lp2888
I8
aI9
aI25
aI6
aI7
atRp2889
sS'contribute-13.2-2'
p2890
g8
((lp2891
I0
atRp2892
sg321
g8
((lp2893
I2
atRp2894
sg275
g8
((lp2895
I5
atRp2896
sg768
g8
((lp2897
I3
atRp2898
sg222
g8
((lp2899
I2
atRp2900
sg293
g8
((lp2901
I0
atRp2902
sS'performance-26.7-1-1'
p2903
g8
((lp2904
I0
atRp2905
sg243
g8
((lp2906
I2
aI4
atRp2907
sS'create-26.4-1'
p2908
g8
((lp2909
I0
atRp2910
sg1775
g8
((lp2911
I1
atRp2912
sg261
g8
((lp2913
I2
aI4
atRp2914
sg166
g8
((lp2915
I1
atRp2916
sg21
g8
((lp2917
I3
atRp2918
stp2919
a(I135
(g2
g3
g2
g1904
g2
t(dp2920
g62
g8
((lp2921
I3
atRp2922
sg53
g8
((lp2923
I2
atRp2924
sg309
g8
((lp2925
I1
atRp2926
sg32
g8
((lp2927
I1
atRp2928
sg73
g8
((lp2929
I2
atRp2930
stp2931
a(I136
(g2
g3
g2
g2743
g2
t(dp2932
g714
g8
((lp2933
I2
aI3
atRp2934
sg659
g8
((lp2935
I7
atRp2936
sg100
g8
((lp2937
I3
atRp2938
sg757
g8
((lp2939
I2
atRp2940
sg738
g8
((lp2941
I7
atRp2942
sg679
g8
((lp2943
I2
atRp2944
sg2756
g8
((lp2945
I0
atRp2946
stp2947
a(I137
(g2
g3
g2
g282
g2
g176
g2
t(dp2948
g188
g8
((lp2949
I3
atRp2950
stp2951
a(I138
(g2
g3
g95
g2
g5
g2
t(dp2952
g109
g8
((lp2953
I3
atRp2954
sg151
g8
((lp2955
I8
atRp2956
stp2957
a(I139
(g2
g3
g2
g267
g2
g176
g2
t(dp2958
g53
g8
((lp2959
I8
atRp2960
stp2961
a(I140
(g2
g3
g2
g827
g2
t(dp2962
g847
g8
((lp2963
I1
atRp2964
stp2965
a(I141
(g2
g3
g2
g525
t(dp2966
g714
g8
((lp2967
I5
atRp2968
sg330
g8
((lp2969
I5
atRp2970
sg337
g8
((lp2971
I2
atRp2972
sg100
g8
((lp2973
I6
atRp2974
sg106
g8
((lp2975
I5
atRp2976
sg424
g8
((lp2977
I5
atRp2978
sg340
g8
((lp2979
I9
aI3
atRp2980
sg679
g8
((lp2981
I4
aI6
atRp2982
sg115
g8
((lp2983
I5
atRp2984
sg561
g8
((lp2985
I4
atRp2986
sg659
g8
((lp2987
I6
atRp2988
sg738
g8
((lp2989
I9
atRp2990
sg490
g8
((lp2991
I1
atRp2992
sg884
g8
((lp2993
I3
atRp2994
sg887
g8
((lp2995
I2
atRp2996
sg1214
g8
((lp2997
I0
atRp2998
sg757
g8
((lp2999
I4
aI6
atRp3000
sg142
g8
((lp3001
I5
atRp3002
sg222
g8
((lp3003
I1
atRp3004
sg1088
g8
((lp3005
I0
atRp3006
sg1449
g8
((lp3007
I0
atRp3008
sg774
g8
((lp3009
I1
atRp3010
sg327
g8
((lp3011
I4
atRp3012
sg1258
g8
((lp3013
I2
atRp3014
sg647
g8
((lp3015
I4
atRp3016
sg56
g8
((lp3017
I11
aI7
atRp3018
sg521
g8
((lp3019
I7
atRp3020
stp3021
a(I142
(g2
g3
g506
g2
t(dp3022
g185
g8
((lp3023
I1
atRp3024
sg964
g8
((lp3025
I2
atRp3026
stp3027
a(I143
(g2
g3
g2
g794
g2
t(dp3028
g121
g8
((lp3029
I5
atRp3030
sg798
g8
((lp3031
I0
atRp3032
stp3033
a(I144
(g2
g3
g1081
g2
g2
t(dp3034
g275
g8
((lp3035
I2
atRp3036
stp3037
a(I145
(g2
g3
g2
g2369
g2
t(dp3038
g738
g8
((lp3039
I2
aI3
atRp3040
sg1537
g8
((lp3041
I1
atRp3042
sg1163
g8
((lp3043
I1
atRp3044
sg1272
g8
((lp3045
I1
atRp3046
stp3047
a(I146
(g2
g3
g2
g1048
g2
t(dp3048
S'multiply-108-1'
p3049
g8
((lp3050
I0
atRp3051
sg1250
g8
((lp3052
I1
atRp3053
sg446
g8
((lp3054
I1
atRp3055
sg487
g8
((lp3056
I5
atRp3057
stp3058
a(I147
(g2
g3
g95
g2
g273
g2
t(dp3059
g142
g8
((lp3060
I12
atRp3061
stp3062
a(I148
(g2
g3
g2
g282
g2
g95
g2
t(dp3063
g284
g8
((lp3064
I3
atRp3065
sg287
g8
((lp3066
I3
atRp3067
sg290
g8
((lp3068
I3
atRp3069
sg296
g8
((lp3070
I3
atRp3071
sg121
g8
((lp3072
I7
atRp3073
sg293
g8
((lp3074
I4
atRp3075
sg275
g8
((lp3076
I4
atRp3077
stp3078
a(I149
(g2
g3
g525
t(dp3079
g1833
g8
((lp3080
I0
atRp3081
sg100
g8
((lp3082
I4
atRp3083
sg106
g8
((lp3084
I9
atRp3085
sg142
g8
((lp3086
I9
atRp3087
sg1473
g8
((lp3088
I0
atRp3089
stp3090
a(I150
(g2
g3
g1039
g2
t(dp3091
S'long-32.2-2'
p3092
g8
((lp3093
I0
atRp3094
sg1272
g8
((lp3095
I2
atRp3096
stp3097
a(I151
(g2
g3
g2
g267
g2
g325
g2
t(dp3098
g327
g8
((lp3099
I7
atRp3100
sg330
g8
((lp3101
I7
atRp3102
sg56
g8
((lp3103
I10
atRp3104
sg106
g8
((lp3105
I8
atRp3106
sg337
g8
((lp3107
I4
atRp3108
sg340
g8
((lp3109
I6
atRp3110
sg142
g8
((lp3111
I8
atRp3112
sg115
g8
((lp3113
I8
atRp3114
stp3115
a(I152
(g2
g3
g556
g2
g176
g2
t(dp3116
g185
g8
((lp3117
I2
atRp3118
sg213
g8
((lp3119
I2
atRp3120
sg200
g8
((lp3121
I2
atRp3122
stp3123
a(I153
(g2
g3
g551
g2
t(dp3124
g1892
g8
((lp3125
I2
aI4
atRp3126
sS'being_dressed-41.3.3'
p3127
g8
((lp3128
I0
atRp3129
sg1176
g8
((lp3130
I1
atRp3131
sS'cooperate-73-2'
p3132
g8
((lp3133
I0
aI1
atRp3134
sS'escape-51.1-2'
p3135
g8
((lp3136
I0
atRp3137
sg925
g8
((lp3138
I0
atRp3139
sg1473
g8
((lp3140
I3
atRp3141
sg829
g8
((lp3142
I0
atRp3143
sg659
g8
((lp3144
I5
atRp3145
sg1053
g8
((lp3146
I1
atRp3147
sg653
g8
((lp3148
I3
atRp3149
sS'marvel-31.3-5'
p3150
g8
((lp3151
I0
atRp3152
sg1686
g8
((lp3153
I2
aI3
atRp3154
sg2330
g8
((lp3155
I1
aI2
atRp3156
stp3157
a(I154
(g2
g3
g2
g267
g2
g273
g2
t(dp3158
g142
g8
((lp3159
I8
atRp3160
stp3161
a(I155
(g2
g3
g2
g1826
g525
t(dp3162
g1752
g8
((lp3163
I2
atRp3164
stp3165
a(I156
(g2
g3
g2654
t(dp3166
g59
g8
((lp3167
I3
atRp3168
stp3169
a(I157
(g2
g3
S'"like"'
g2
t(dp3170
S'masquerade-29.6-1'
p3171
g8
((lp3172
I0
atRp3173
stp3174
a.